(dp0
I3
(((F653.0
F1326.0
tp1
(F1247.0
F1434.0
tp2
tp3
cnumpy.core.multiarray
scalar
p4
(cnumpy
dtype
p5
(S'f8'
p6
I0
I1
tp7
Rp8
(I3
S'<'
p9
NNNI-1
I-1
I0
tp10
bS'\x80\xbc\xa1\x0b\xd6\xf8\x91\xbf'
p11
tp12
Rp13
tp14
sI4
(((F779.0
F1213.0
tp15
(F1222.0
F1339.0
tp16
tp17
g4
(g8
S'@\xbc\xa1\x0b\xd6\xf8\xa1\xbf'
p18
tp19
Rp20
tp21
sI5
(((F880.0
F1144.0
tp22
(F1110.0
F1173.0
tp23
tp24
g4
(g8
S'\x00\x00\x00\x00\x00\x00\x00\x00'
p25
tp26
Rp27
tp28
sI6
(((F660.0
F980.0
tp29
(F1322.0
F1411.0
tp30
tp31
g4
(g8
S'@\xbc\xa1\x0b\xd6\xf8\xa1\xbf'
p32
tp33
Rp34
tp35
sI7
(((F814.0
F1228.0
tp36
(F1107.0
F1245.0
tp37
tp38
g4
(g8
S'@+\x8a\x8e\x0bw\xb6\xbf'
p39
tp40
Rp41
tp42
sI8
(((F664.0
F1106.0
tp43
(F1327.0
F1467.0
tp44
tp45
g4
(g8
S' \xbc\xa1\x0b\xd6\xf8\xb1?'
p46
tp47
Rp48
tp49
sI9
(((F906.0
F1356.0
tp50
(F1498.0
F1656.0
tp51
tp52
g4
(g8
S'0\xbc\xa1\x0b\xd6\xf8\xc1\xbf'
p53
tp54
Rp55
tp56
sI10
(((F1063.0
F1472.0
tp57
(F1369.0
F1536.0
tp58
tp59
g4
(g8
S'\xb0\xf3\x15\xcd\xf07\xc4\xbf'
p60
tp61
Rp62
tp63
sI11
(((F1031.0
F1517.0
tp64
(F1261.0
F1430.0
tp65
tp66
g4
(g8
S'0\xbc\xa1\x0b\xd6\xf8\xc1\xbf'
p67
tp68
Rp69
tp70
sI12
(((F1023.0
F1465.0
tp71
(F1340.0
F1497.0
tp72
tp73
g4
(g8
S'@+\x8a\x8e\x0bw\xb6\xbf'
p74
tp75
Rp76
tp77
sI13
(((F885.0
F1290.0
tp78
(F1216.0
F1354.0
tp79
tp80
g4
(g8
S'@+\x8a\x8e\x0bw\xb6\xbf'
p81
tp82
Rp83
tp84
sI14
(((F1019.0
F1469.0
tp85
(F1253.0
F1421.0
tp86
tp87
g4
(g8
S'@\t[\x94vs\xbf\xbf'
p88
tp89
Rp90
tp91
sI15
(((F631.0
F1081.0
tp92
(F1064.0
F1225.0
tp93
tp94
g4
(g8
S'@\x9ar\x11A\xf5\xaa?'
p95
tp96
Rp97
tp98
sI16
(((F572.0
F914.0
tp99
(F1128.0
F1238.0
tp100
tp101
g4
(g8
S' \xbc\xa1\x0b\xd6\xf8\xa1?'
p102
tp103
Rp104
tp105
sI17
(((F510.0
F943.0
tp106
(F1487.0
F1654.0
tp107
tp108
g4
(g8
S'0+\x8a\x8e\x0bw\xb6?'
p109
tp110
Rp111
tp112
sI18
(((F698.0
F1033.0
tp113
(F1345.0
F1464.0
tp114
tp115
g4
(g8
S'0+\x8a\x8e\x0bw\xb6?'
p116
tp117
Rp118
tp119
sI19
(((F548.0
F1048.0
tp120
(F1592.0
F1721.0
tp121
tp122
g4
(g8
S'@\xbc\xa1\x0b\xd6\xf8\x91?'
p123
tp124
Rp125
tp126
sI20
(((F704.0
F1090.0
tp127
(F1058.0
F1178.0
tp128
tp129
g4
(g8
S' \xbc\xa1\x0b\xd6\xf8\xa1?'
p130
tp131
Rp132
tp133
sI21
(((F862.0
F1267.0
tp134
(F1003.0
F1123.0
tp135
tp136
g4
(g8
S'@\x9ar\x11A\xf5\xaa\xbf'
p137
tp138
Rp139
tp140
sI22
(((F955.0
F1412.0
tp141
(F1086.0
F1243.0
tp142
tp143
g4
(g8
S'@\x9ar\x11A\xf5\xba\xbf'
p144
tp145
Rp146
tp147
sI23
(((F1024.0
F1433.0
tp148
(F1261.0
F1406.0
tp149
tp150
g4
(g8
S'@\x9ar\x11A\xf5\xba\xbf'
p151
tp152
Rp153
tp154
sI24
(((F926.0
F1291.0
tp155
(F1392.0
F1529.0
tp156
tp157
g4
(g8
S'@\x9ar\x11A\xf5\xba\xbf'
p158
tp159
Rp160
tp161
sI25
(((F732.0
F1199.0
tp162
(F1346.0
F1498.0
tp163
tp164
g4
(g8
S'@\xbc\xa1\x0b\xd6\xf8\x91?'
p165
tp166
Rp167
tp168
sI26
(((F738.0
F1277.0
tp169
(F1429.0
F1586.0
tp170
tp171
g4
(g8
S'\x00\x00\x00\x00\x00\x00\x00\x00'
p172
tp173
Rp174
tp175
sI27
(((F650.0
F1053.0
tp176
(F1186.0
F1316.0
tp177
tp178
g4
(g8
S'0\x9ar\x11A\xf5\xba?'
p179
tp180
Rp181
tp182
sI28
(((F502.0
F901.0
tp183
(F1405.0
F1548.0
tp184
tp185
g4
(g8
S'0\x9ar\x11A\xf5\xba?'
p186
tp187
Rp188
tp189
sI29
(((F318.0
F748.0
tp190
(F1376.0
F1525.0
tp191
tp192
g4
(g8
S'0\x9ar\x11A\xf5\xba?'
p193
tp194
Rp195
tp196
sI30
(((F463.0
F857.0
tp197
(F1254.0
F1398.0
tp198
tp199
g4
(g8
S'0\x9ar\x11A\xf5\xba?'
p200
tp201
Rp202
tp203
sI31
(((F572.0
F914.0
tp204
(F1075.0
F1205.0
tp205
tp206
g4
(g8
S'@\t[\x94vs\xbf?'
p207
tp208
Rp209
tp210
sI32
(((F452.0
F851.0
tp211
(F994.0
F1125.0
tp212
tp213
g4
(g8
S' \xbc\xa1\x0b\xd6\xf8\xb1?'
p214
tp215
Rp216
tp217
sI33
(((F462.0
F890.0
tp218
(F1168.0
F1347.0
tp219
tp220
g4
(g8
S' \xbc\xa1\x0b\xd6\xf8\xc1?'
p221
tp222
Rp223
tp224
sI34
(((F428.0
F866.0
tp225
(F1457.0
F1618.0
tp226
tp227
g4
(g8
S'0\x9ar\x11A\xf5\xba?'
p228
tp229
Rp230
tp231
sI35
(((F468.0
F1033.0
tp232
(F1177.0
F1406.0
tp233
tp234
g4
(g8
S'\xa8\xf3\x15\xcd\xf07\xc4?'
p235
tp236
Rp237
tp238
sI36
(((F799.0
F1026.0
tp239
(F830.0
F903.0
tp240
tp241
g4
(g8
S'@\x9ar\x11A\xf5\xaa?'
p242
tp243
Rp244
tp245
sI38
(((F880.0
F1080.0
tp246
(F1227.0
F1281.0
tp247
tp248
g4
(g8
S'\x00\x00\x00\x00\x00\x00\x00\x00'
p249
tp250
Rp251
tp252
sI39
(((F1215.0
F1651.0
tp253
(F1360.0
F1560.0
tp254
tp255
g4
(g8
S'0+\x8a\x8e\x0bw\xc6\xbf'
p256
tp257
Rp258
tp259
sI40
(((F926.0
F1402.0
tp260
(F1407.0
F1553.0
tp261
tp262
g4
(g8
S'@\xbc\xa1\x0b\xd6\xf8\xb1\xbf'
p263
tp264
Rp265
tp266
sI41
(((F1205.0
F1649.0
tp267
(F1395.0
F1571.0
tp268
tp269
g4
(g8
S'0\xbc\xa1\x0b\xd6\xf8\xc1\xbf'
p270
tp271
Rp272
tp273
sI42
(((F778.0
F1106.0
tp274
(F1288.0
F1380.0
tp275
tp276
g4
(g8
S'@\x9ar\x11A\xf5\xaa\xbf'
p277
tp278
Rp279
tp280
sI43
(((F625.0
F984.0
tp281
(F1149.0
F1297.0
tp282
tp283
g4
(g8
S' \xbc\xa1\x0b\xd6\xf8\xc1?'
p284
tp285
Rp286
tp287
sI44
(((F505.0
F931.0
tp288
(F1289.0
F1438.0
tp289
tp290
g4
(g8
S' \xbc\xa1\x0b\xd6\xf8\xb1?'
p291
tp292
Rp293
tp294
sI45
(((F705.0
F1166.0
tp295
(F1340.0
F1477.0
tp296
tp297
g4
(g8
S'@\x9ar\x11A\xf5\xaa\xbf'
p298
tp299
Rp300
tp301
sI46
(((F952.0
F1276.0
tp302
(F1462.0
F1581.0
tp303
tp304
g4
(g8
S'@\x9ar\x11A\xf5\xba\xbf'
p305
tp306
Rp307
tp308
sI47
(((F890.0
F1342.0
tp309
(F1240.0
F1392.0
tp310
tp311
g4
(g8
S'@\xbc\xa1\x0b\xd6\xf8\xb1\xbf'
p312
tp313
Rp314
tp315
sI48
(((F931.0
F1312.0
tp316
(F1358.0
F1490.0
tp317
tp318
g4
(g8
S'@\xbc\xa1\x0b\xd6\xf8\xb1\xbf'
p319
tp320
Rp321
tp322
sI49
(((F821.0
F1036.0
tp323
(F1192.0
F1275.0
tp324
tp325
g4
(g8
S'@\x9ar\x11A\xf5\xaa?'
p326
tp327
Rp328
tp329
sI50
(((F695.0
F1015.0
tp330
(F1014.0
F1115.0
tp331
tp332
g4
(g8
S'@\xbc\xa1\x0b\xd6\xf8\x91?'
p333
tp334
Rp335
tp336
sI51
(((F885.0
F1238.0
tp337
(F1231.0
F1348.0
tp338
tp339
g4
(g8
S'@+\x8a\x8e\x0bw\xb6\xbf'
p340
tp341
Rp342
tp343
sI52
(((F861.0
F1344.0
tp344
(F1373.0
F1578.0
tp345
tp346
g4
(g8
S'0+\x8a\x8e\x0bw\xc6\xbf'
p347
tp348
Rp349
tp350
sI53
(((F458.0
F924.0
tp351
(F1626.0
F1822.0
tp352
tp353
g4
(g8
S'\xa8\xf3\x15\xcd\xf07\xc4?'
p354
tp355
Rp356
tp357
sI54
(((F933.0
F1325.0
tp358
(F1450.0
F1590.0
tp359
tp360
g4
(g8
S'@\t[\x94vs\xbf\xbf'
p361
tp362
Rp363
tp364
sI55
(((F523.0
F916.0
tp365
(F1548.0
F1731.0
tp366
tp367
g4
(g8
S'0\x9ar\x11A\xf5\xca?'
p368
tp369
Rp370
tp371
sI56
(((F824.0
F1153.0
tp372
(F1106.0
F1217.0
tp373
tp374
g4
(g8
S'@\xbc\xa1\x0b\xd6\xf8\xa1\xbf'
p375
tp376
Rp377
tp378
sI57
(((F895.0
F1227.0
tp379
(F1384.0
F1496.0
tp380
tp381
g4
(g8
S'@\x9ar\x11A\xf5\xba\xbf'
p382
tp383
Rp384
tp385
sI58
(((F796.0
F1060.0
tp386
(F1272.0
F1342.0
tp387
tp388
g4
(g8
S'\x80\xbc\xa1\x0b\xd6\xf8\x91\xbf'
p389
tp390
Rp391
tp392
sI59
(((F448.0
F834.0
tp393
(F1424.0
F1575.0
tp394
tp395
g4
(g8
S'\xb0b\xfeO&\xb6\xc8?'
p396
tp397
Rp398
tp399
sI60
(((F737.0
F1146.0
tp400
(F1382.0
F1499.0
tp401
tp402
g4
(g8
S'\x00\x00\x00\x00\x00\x00\x00\x00'
p403
tp404
Rp405
tp406
sI61
(((F760.0
F1164.0
tp407
(F1259.0
F1364.0
tp408
tp409
g4
(g8
S'@\x9ar\x11A\xf5\xaa\xbf'
p410
tp411
Rp412
tp413
sI62
(((F718.0
F1212.0
tp414
(F1704.0
F1831.0
tp415
tp416
g4
(g8
S'\x00\x00\x00\x00\x00\x00\x00\x00'
p417
tp418
Rp419
tp420
sI63
(((F472.0
F907.0
tp421
(F1316.0
F1475.0
tp422
tp423
g4
(g8
S'0\x9ar\x11A\xf5\xba?'
p424
tp425
Rp426
tp427
sI64
(((F525.0
F867.0
tp428
(F1499.0
F1616.0
tp429
tp430
g4
(g8
S'0\x9ar\x11A\xf5\xba?'
p431
tp432
Rp433
tp434
sI65
(((F384.0
F785.0
tp435
(F1354.0
F1535.0
tp436
tp437
g4
(g8
S'\xa8\xf3\x15\xcd\xf07\xc4?'
p438
tp439
Rp440
tp441
sI66
(((F676.0
F1020.0
tp442
(F1334.0
F1438.0
tp443
tp444
g4
(g8
S' \xbc\xa1\x0b\xd6\xf8\xa1?'
p445
tp446
Rp447
tp448
sI67
(((F516.0
F943.0
tp449
(F1413.0
F1556.0
tp450
tp451
g4
(g8
S'0\x9ar\x11A\xf5\xba?'
p452
tp453
Rp454
tp455
sI68
(((F928.0
F1259.0
tp456
(F1400.0
F1484.0
tp457
tp458
g4
(g8
S'\x80\xbc\xa1\x0b\xd6\xf8\x91\xbf'
p459
tp460
Rp461
tp462
sI69
(((F610.0
F1043.0
tp463
(F1470.0
F1641.0
tp464
tp465
g4
(g8
S'\xa8\xf3\x15\xcd\xf07\xc4?'
p466
tp467
Rp468
tp469
sI70
(((F940.0
F1304.0
tp470
(F1041.0
F1169.0
tp471
tp472
g4
(g8
S'@+\x8a\x8e\x0bw\xb6\xbf'
p473
tp474
Rp475
tp476
sI71
(((F530.0
F869.0
tp477
(F1377.0
F1504.0
tp478
tp479
g4
(g8
S'@\t[\x94vs\xbf?'
p480
tp481
Rp482
tp483
sI72
(((F899.0
F1362.0
tp484
(F1263.0
F1386.0
tp485
tp486
g4
(g8
S'@\x9ar\x11A\xf5\xaa\xbf'
p487
tp488
Rp489
tp490
sI73
(((F502.0
F976.0
tp491
(F1605.0
F1794.0
tp492
tp493
g4
(g8
S'(+\x8a\x8e\x0bw\xc6?'
p494
tp495
Rp496
tp497
sI74
(((F458.0
F925.0
tp498
(F1270.0
F1486.0
tp499
tp500
g4
(g8
S'\xb8\xd1\xe6\xd2[4\xcd?'
p501
tp502
Rp503
tp504
sI75
(((F425.0
F887.0
tp505
(F1519.0
F1699.0
tp506
tp507
g4
(g8
S'\xa8\xf3\x15\xcd\xf07\xc4?'
p508
tp509
Rp510
tp511
sI76
(((F971.0
F1389.0
tp512
(F1004.0
F1142.0
tp513
tp514
g4
(g8
S'@\x9ar\x11A\xf5\xba\xbf'
p515
tp516
Rp517
tp518
sI77
(((F533.0
F1084.0
tp519
(F1464.0
F1677.0
tp520
tp521
g4
(g8
S'(+\x8a\x8e\x0bw\xc6?'
p522
tp523
Rp524
tp525
sI78
(((F697.0
F1140.0
tp526
(F1170.0
F1286.0
tp527
tp528
g4
(g8
S'\x00\x00\x00\x00\x00\x00\x00\x00'
p529
tp530
Rp531
tp532
sI79
(((F959.0
F1406.0
tp533
(F987.0
F1131.0
tp534
tp535
g4
(g8
S'@+\x8a\x8e\x0bw\xb6\xbf'
p536
tp537
Rp538
tp539
sI80
(((F462.0
F877.0
tp540
(F1430.0
F1607.0
tp541
tp542
g4
(g8
S'\xa8\xf3\x15\xcd\xf07\xc4?'
p543
tp544
Rp545
tp546
sI81
(((F1000.0
F1331.0
tp547
(F1221.0
F1321.0
tp548
tp549
g4
(g8
S'@\xbc\xa1\x0b\xd6\xf8\xb1\xbf'
p550
tp551
Rp552
tp553
sI82
(((F559.0
F846.0
tp554
(F1138.0
F1260.0
tp555
tp556
g4
(g8
S'0\x9ar\x11A\xf5\xba?'
p557
tp558
Rp559
tp560
sI83
(((F1117.0
F1604.0
tp561
(F1569.0
F1781.0
tp562
tp563
g4
(g8
S'\xb0b\xfeO&\xb6\xc8\xbf'
p564
tp565
Rp566
tp567
sI84
(((F628.0
F1006.0
tp568
(F1037.0
F1158.0
tp569
tp570
g4
(g8
S' \xbc\xa1\x0b\xd6\xf8\xa1?'
p571
tp572
Rp573
tp574
sI85
(((F250.0
F789.0
tp575
(F1596.0
F1855.0
tp576
tp577
g4
(g8
S'\xb8\xd1\xe6\xd2[4\xcd?'
p578
tp579
Rp580
tp581
sI86
(((F946.0
F1248.0
tp582
(F1293.0
F1395.0
tp583
tp584
g4
(g8
S'@\x9ar\x11A\xf5\xba\xbf'
p585
tp586
Rp587
tp588
sI87
(((F506.0
F1039.0
tp589
(F1419.0
F1595.0
tp590
tp591
g4
(g8
S' \xbc\xa1\x0b\xd6\xf8\xb1?'
p592
tp593
Rp594
tp595
sI88
(((F529.0
F963.0
tp596
(F1080.0
F1232.0
tp597
tp598
g4
(g8
S'0\x9ar\x11A\xf5\xba?'
p599
tp600
Rp601
tp602
sI89
(((F467.0
F859.0
tp603
(F1229.0
F1382.0
tp604
tp605
g4
(g8
S'\xa8\xf3\x15\xcd\xf07\xc4?'
p606
tp607
Rp608
tp609
sI90
(((F604.0
F937.0
tp610
(F953.0
F1056.0
tp611
tp612
g4
(g8
S' \xbc\xa1\x0b\xd6\xf8\xb1?'
p613
tp614
Rp615
tp616
sI91
(((F1129.0
F1644.0
tp617
(F1470.0
F1714.0
tp618
tp619
g4
(g8
S'`\xa0\xe7\xaaH\xd9\xd0\xbf'
p620
tp621
Rp622
tp623
sI92
(((F493.0
F859.0
tp624
(F1383.0
F1530.0
tp625
tp626
g4
(g8
S' \xbc\xa1\x0b\xd6\xf8\xc1?'
p627
tp628
Rp629
tp630
sI93
(((F802.0
F1154.0
tp631
(F1202.0
F1337.0
tp632
tp633
g4
(g8
S'@\t[\x94vs\xbf?'
p634
tp635
Rp636
tp637
sI94
(((F438.0
F775.0
tp638
(F1424.0
F1564.0
tp639
tp640
g4
(g8
S'\xa8\xf3\x15\xcd\xf07\xc4?'
p641
tp642
Rp643
tp644
sI95
(((F939.0
F1361.0
tp645
(F1270.0
F1422.0
tp646
tp647
g4
(g8
S'@\x9ar\x11A\xf5\xba\xbf'
p648
tp649
Rp650
tp651
sI96
(((F889.0
F1216.0
tp652
(F1088.0
F1183.0
tp653
tp654
g4
(g8
S'\x00\x00\x00\x00\x00\x00\x00\x00'
p655
tp656
Rp657
tp658
sI97
(((F1019.0
F1637.0
tp659
(F1148.0
F1377.0
tp660
tp661
g4
(g8
S'@+\x8a\x8e\x0bw\xb6\xbf'
p662
tp663
Rp664
tp665
sI98
(((F878.0
F1324.0
tp666
(F1296.0
F1440.0
tp667
tp668
g4
(g8
S'\x80\xbc\xa1\x0b\xd6\xf8\x91\xbf'
p669
tp670
Rp671
tp672
sI99
(((F693.0
F1099.0
tp673
(F1284.0
F1390.0
tp674
tp675
g4
(g8
S'@\xbc\xa1\x0b\xd6\xf8\xa1\xbf'
p676
tp677
Rp678
tp679
sI100
(((F861.0
F1259.0
tp680
(F1244.0
F1352.0
tp681
tp682
g4
(g8
S'\x80\xbc\xa1\x0b\xd6\xf8\x91\xbf'
p683
tp684
Rp685
tp686
sI101
(((F340.0
F827.0
tp687
(F1728.0
F1954.0
tp688
tp689
g4
(g8
S'0\x9ar\x11A\xf5\xca?'
p690
tp691
Rp692
tp693
sI102
(((F988.0
F1365.0
tp694
(F1457.0
F1583.0
tp695
tp696
g4
(g8
S'@+\x8a\x8e\x0bw\xb6\xbf'
p697
tp698
Rp699
tp700
sI103
(((F470.0
F998.0
tp701
(F1291.0
F1469.0
tp702
tp703
g4
(g8
S'0+\x8a\x8e\x0bw\xb6?'
p704
tp705
Rp706
tp707
sI104
(((F760.0
F1244.0
tp708
(F1241.0
F1365.0
tp709
tp710
g4
(g8
S'\x80\xbc\xa1\x0b\xd6\xf8\x91\xbf'
p711
tp712
Rp713
tp714
sI105
(((F887.0
F1372.0
tp715
(F1290.0
F1452.0
tp716
tp717
g4
(g8
S'@+\x8a\x8e\x0bw\xb6\xbf'
p718
tp719
Rp720
tp721
sI106
(((F923.0
F1318.0
tp722
(F1117.0
F1240.0
tp723
tp724
g4
(g8
S'@\x9ar\x11A\xf5\xaa\xbf'
p725
tp726
Rp727
tp728
sI107
(((F761.0
F1147.0
tp729
(F1027.0
F1141.0
tp730
tp731
g4
(g8
S'@\x9ar\x11A\xf5\xaa\xbf'
p732
tp733
Rp734
tp735
sI108
(((F395.0
F768.0
tp736
(F965.0
F1113.0
tp737
tp738
g4
(g8
S'0\x9ar\x11A\xf5\xba?'
p739
tp740
Rp741
tp742
sI109
(((F423.0
F778.0
tp743
(F1154.0
F1297.0
tp744
tp745
g4
(g8
S' \xbc\xa1\x0b\xd6\xf8\xc1?'
p746
tp747
Rp748
tp749
sI110
(((F530.0
F923.0
tp750
(F1449.0
F1592.0
tp751
tp752
g4
(g8
S'0\x9ar\x11A\xf5\xba?'
p753
tp754
Rp755
tp756
sI112
(((F399.0
F845.0
tp757
(F1269.0
F1443.0
tp758
tp759
g4
(g8
S' \xbc\xa1\x0b\xd6\xf8\xc1?'
p760
tp761
Rp762
tp763
sI113
(((F606.0
F1249.0
tp764
(F1543.0
F1722.0
tp765
tp766
g4
(g8
S'@\x9ar\x11A\xf5\xaa?'
p767
tp768
Rp769
tp770
sI114
(((F458.0
F1085.0
tp771
(F1482.0
F1715.0
tp772
tp773
g4
(g8
S'@\t[\x94vs\xbf?'
p774
tp775
Rp776
tp777
sI115
(((F460.0
F888.0
tp778
(F1184.0
F1347.0
tp779
tp780
g4
(g8
S' \xbc\xa1\x0b\xd6\xf8\xb1?'
p781
tp782
Rp783
tp784
sI116
(((F1165.0
F1633.0
tp785
(F1369.0
F1559.0
tp786
tp787
g4
(g8
S'0+\x8a\x8e\x0bw\xc6\xbf'
p788
tp789
Rp790
tp791
sI117
(((F797.0
F1269.0
tp792
(F932.0
F1061.0
tp793
tp794
g4
(g8
S'@\xbc\xa1\x0b\xd6\xf8\xb1\xbf'
p795
tp796
Rp797
tp798
sI118
(((F838.0
F1328.0
tp799
(F916.0
F1081.0
tp800
tp801
g4
(g8
S'@+\x8a\x8e\x0bw\xb6\xbf'
p802
tp803
Rp804
tp805
sI119
(((F792.0
F1229.0
tp806
(F823.0
F941.0
tp807
tp808
g4
(g8
S'\x00\x00\x00\x00\x00\x00\x00\x00'
p809
tp810
Rp811
tp812
sI120
(((F1109.0
F1600.0
tp813
(F1417.0
F1612.0
tp814
tp815
g4
(g8
S'0+\x8a\x8e\x0bw\xc6\xbf'
p816
tp817
Rp818
tp819
sI121
(((F1027.0
F1432.0
tp820
(F1353.0
F1506.0
tp821
tp822
g4
(g8
S'@\x9ar\x11A\xf5\xba\xbf'
p823
tp824
Rp825
tp826
sI122
(((F981.0
F1420.0
tp827
(F1253.0
F1424.0
tp828
tp829
g4
(g8
S'@\t[\x94vs\xbf\xbf'
p830
tp831
Rp832
tp833
sI123
(((F708.0
F1252.0
tp834
(F1476.0
F1644.0
tp835
tp836
g4
(g8
S'\x80\xbc\xa1\x0b\xd6\xf8\x91\xbf'
p837
tp838
Rp839
tp840
sI124
(((F961.0
F1329.0
tp841
(F1471.0
F1594.0
tp842
tp843
g4
(g8
S'@\x9ar\x11A\xf5\xba\xbf'
p844
tp845
Rp846
tp847
sI125
(((F534.0
F849.0
tp848
(F1160.0
F1242.0
tp849
tp850
g4
(g8
S'\x00\x00\x00\x00\x00\x00\x00\x00'
p851
tp852
Rp853
tp854
sI126
(((F557.0
F750.0
tp855
(F1119.0
F1286.0
tp856
tp857
g4
(g8
S'0\x9ar\x11A\xf5\xba?'
p858
tp859
Rp860
tp861
sI127
(((F556.0
F846.0
tp862
(F1186.0
F1278.0
tp863
tp864
g4
(g8
S'@\x9ar\x11A\xf5\xaa?'
p865
tp866
Rp867
tp868
sI128
(((F633.0
F943.0
tp869
(F1365.0
F1460.0
tp870
tp871
g4
(g8
S' \xbc\xa1\x0b\xd6\xf8\xb1?'
p872
tp873
Rp874
tp875
sI129
(((F396.0
F692.0
tp876
(F1080.0
F1178.0
tp877
tp878
g4
(g8
S' \xbc\xa1\x0b\xd6\xf8\xb1?'
p879
tp880
Rp881
tp882
sI130
(((F881.0
F1206.0
tp883
(F1157.0
F1261.0
tp884
tp885
g4
(g8
S'@\xbc\xa1\x0b\xd6\xf8\xa1\xbf'
p886
tp887
Rp888
tp889
sI131
(((F701.0
F1057.0
tp890
(F1416.0
F1562.0
tp891
tp892
g4
(g8
S'@\t[\x94vs\xbf?'
p893
tp894
Rp895
tp896
sI132
(((F352.0
F512.0
tp897
(F1120.0
F1281.0
tp898
tp899
g4
(g8
S'@\t[\x94vs\xbf?'
p900
tp901
Rp902
tp903
sI133
(((F945.0
F1423.0
tp904
(F1490.0
F1678.0
tp905
tp906
g4
(g8
S'0+\x8a\x8e\x0bw\xc6\xbf'
p907
tp908
Rp909
tp910
sI134
(((F877.0
F1219.0
tp911
(F1600.0
F1775.0
tp912
tp913
g4
(g8
S'@\xbc\xa1\x0b\xd6\xf8\x91?'
p914
tp915
Rp916
tp917
sI135
(((F993.0
F1274.0
tp918
(F1535.0
F1692.0
tp919
tp920
g4
(g8
S'@\xbc\xa1\x0b\xd6\xf8\xb1\xbf'
p921
tp922
Rp923
tp924
sI136
(((F536.0
F970.0
tp925
(F1222.0
F1392.0
tp926
tp927
g4
(g8
S'0\x9ar\x11A\xf5\xba?'
p928
tp929
Rp930
tp931
sI137
(((F727.0
F1036.0
tp932
(F1291.0
F1425.0
tp933
tp934
g4
(g8
S'\xa8\xf3\x15\xcd\xf07\xc4?'
p935
tp936
Rp937
tp938
sI138
(((F674.0
F1153.0
tp939
(F1114.0
F1264.0
tp940
tp941
g4
(g8
S' \xbc\xa1\x0b\xd6\xf8\xa1?'
p942
tp943
Rp944
tp945
sI139
(((F834.0
F1109.0
tp946
(F914.0
F999.0
tp947
tp948
g4
(g8
S'@\xbc\xa1\x0b\xd6\xf8\xa1\xbf'
p949
tp950
Rp951
tp952
sI140
(((F451.0
F860.0
tp953
(F1232.0
F1410.0
tp954
tp955
g4
(g8
S'(+\x8a\x8e\x0bw\xc6?'
p956
tp957
Rp958
tp959
sI141
(((F577.0
F984.0
tp960
(F1425.0
F1558.0
tp961
tp962
g4
(g8
S'0+\x8a\x8e\x0bw\xb6?'
p963
tp964
Rp965
tp966
sI142
(((F592.0
F827.0
tp967
(F1255.0
F1434.0
tp968
tp969
g4
(g8
S'@\t[\x94vs\xbf?'
p970
tp971
Rp972
tp973
sI143
(((F810.0
F1187.0
tp974
(F815.0
F934.0
tp975
tp976
g4
(g8
S' \xbc\xa1\x0b\xd6\xf8\xa1?'
p977
tp978
Rp979
tp980
sI144
(((F778.0
F1141.0
tp981
(F1282.0
F1411.0
tp982
tp983
g4
(g8
S'0\x9ar\x11A\xf5\xba?'
p984
tp985
Rp986
tp987
sI145
(((F975.0
F1319.0
tp988
(F994.0
F1107.0
tp989
tp990
g4
(g8
S'@\xbc\xa1\x0b\xd6\xf8\xb1\xbf'
p991
tp992
Rp993
tp994
sI146
(((F959.0
F1398.0
tp995
(F1328.0
F1459.0
tp996
tp997
g4
(g8
S'@\xbc\xa1\x0b\xd6\xf8\xb1\xbf'
p998
tp999
Rp1000
tp1001
sI147
(((F1007.0
F1460.0
tp1002
(F1206.0
F1371.0
tp1003
tp1004
g4
(g8
S'@\xbc\xa1\x0b\xd6\xf8\xb1\xbf'
p1005
tp1006
Rp1007
tp1008
sI148
(((F817.0
F1281.0
tp1009
(F1233.0
F1392.0
tp1010
tp1011
g4
(g8
S'@\xbc\xa1\x0b\xd6\xf8\xa1\xbf'
p1012
tp1013
Rp1014
tp1015
sI149
(((F705.0
F1380.0
tp1016
(F1191.0
F1372.0
tp1017
tp1018
g4
(g8
S'\x00\x00\x00\x00\x00\x00\x00\x00'
p1019
tp1020
Rp1021
tp1022
sI150
(((F746.0
F1236.0
tp1023
(F1408.0
F1548.0
tp1024
tp1025
g4
(g8
S'@\x9ar\x11A\xf5\xaa?'
p1026
tp1027
Rp1028
tp1029
sI151
(((F771.0
F1209.0
tp1030
(F1221.0
F1330.0
tp1031
tp1032
g4
(g8
S'\x00\x00\x00\x00\x00\x00\x00\x00'
p1033
tp1034
Rp1035
tp1036
sI152
(((F525.0
F856.0
tp1037
(F1076.0
F1203.0
tp1038
tp1039
g4
(g8
S'0\x9ar\x11A\xf5\xba?'
p1040
tp1041
Rp1042
tp1043
sI153
(((F798.0
F1081.0
tp1044
(F1129.0
F1207.0
tp1045
tp1046
g4
(g8
S'\x00\x00\x00\x00\x00\x00\x00\x00'
p1047
tp1048
Rp1049
tp1050
sI154
(((F514.0
F914.0
tp1051
(F1170.0
F1325.0
tp1052
tp1053
g4
(g8
S'0\x9ar\x11A\xf5\xba?'
p1054
tp1055
Rp1056
tp1057
sI155
(((F420.0
F878.0
tp1058
(F1416.0
F1583.0
tp1059
tp1060
g4
(g8
S'@\t[\x94vs\xbf?'
p1061
tp1062
Rp1063
tp1064
sI156
(((F809.0
F1283.0
tp1065
(F1159.0
F1297.0
tp1066
tp1067
g4
(g8
S'@\x9ar\x11A\xf5\xaa\xbf'
p1068
tp1069
Rp1070
tp1071
sI157
(((F643.0
F1086.0
tp1072
(F1080.0
F1270.0
tp1073
tp1074
g4
(g8
S'(+\x8a\x8e\x0bw\xc6?'
p1075
tp1076
Rp1077
tp1078
sI158
(((F1085.0
F1580.0
tp1079
(F1457.0
F1661.0
tp1080
tp1081
g4
(g8
S'0\xbc\xa1\x0b\xd6\xf8\xc1\xbf'
p1082
tp1083
Rp1084
tp1085
sI159
(((F647.0
F1156.0
tp1086
(F1155.0
F1332.0
tp1087
tp1088
g4
(g8
S'@\x9ar\x11A\xf5\xaa?'
p1089
tp1090
Rp1091
tp1092
sI160
(((F651.0
F1249.0
tp1093
(F1300.0
F1481.0
tp1094
tp1095
g4
(g8
S'\x80\xbc\xa1\x0b\xd6\xf8\x91\xbf'
p1096
tp1097
Rp1098
tp1099
sI161
(((F615.0
F1028.0
tp1100
(F1283.0
F1468.0
tp1101
tp1102
g4
(g8
S'(+\x8a\x8e\x0bw\xc6?'
p1103
tp1104
Rp1105
tp1106
sI162
(((F760.0
F1087.0
tp1107
(F1067.0
F1162.0
tp1108
tp1109
g4
(g8
S'\x00\x00\x00\x00\x00\x00\x00\x00'
p1110
tp1111
Rp1112
tp1113
sI164
(((F674.0
F1106.0
tp1114
(F1449.0
F1576.0
tp1115
tp1116
g4
(g8
S'@\xbc\xa1\x0b\xd6\xf8\x91?'
p1117
tp1118
Rp1119
tp1120
s.